target datalayout = "e-m:e-p270:32:32-p271:32:32-p272:64:64-i64:64-i128:128-f80:128-n8:16:32:64-S128"
target triple = "x86_64-pc-linux-gnu"

%struct.freed_ractor_local_keys_struct = type { i32, i32, ptr }

@freed_ractor_local_keys = internal global %struct.freed_ractor_local_keys_struct zeroinitializer, align 8

; Function Attrs: nounwind sspstrong uwtable
define dso_local void @rb_ractor_finish_marking() #0 {
  %1 = alloca i32, align 4
  call void @llvm.lifetime.start.p0(i64 4, ptr %1) #16
  store i32 0, ptr %1, align 4, !tbaa !14
  br label %2

2:                                                ; preds = %13, %0
  %3 = load i32, ptr %1, align 4, !tbaa !14
  %4 = load i32, ptr @freed_ractor_local_keys, align 8, !tbaa !165
  %5 = icmp slt i32 %3, %4
  br i1 %5, label %7, label %6

6:                                                ; preds = %2
  call void @llvm.lifetime.end.p0(i64 4, ptr %1) #16
  br label %16

7:                                                ; preds = %2
  %8 = load ptr, ptr getelementptr inbounds nuw (%struct.freed_ractor_local_keys_struct, ptr @freed_ractor_local_keys, i32 0, i32 2), align 8, !tbaa !169
  %9 = load i32, ptr %1, align 4, !tbaa !14
  %10 = sext i32 %9 to i64
  %11 = getelementptr ptr, ptr %8, i64 %10
  %12 = load ptr, ptr %11, align 8, !tbaa !160
  call void @ruby_xfree(ptr noundef %12)
  br label %13

13:                                               ; preds = %7
  %14 = load i32, ptr %1, align 4, !tbaa !14
  %15 = add i32 %14, 1
  store i32 %15, ptr %1, align 4, !tbaa !14
  br label %2, !llvm.loop !171

16:                                               ; preds = %6
  store i32 0, ptr @freed_ractor_local_keys, align 8, !tbaa !165
  %17 = load i32, ptr getelementptr inbounds nuw (%struct.freed_ractor_local_keys_struct, ptr @freed_ractor_local_keys, i32 0, i32 1), align 4, !tbaa !168
  %18 = icmp sgt i32 %17, 16
  br i1 %18, label %19, label %22

19:                                               ; preds = %16
  store i32 16, ptr getelementptr inbounds nuw (%struct.freed_ractor_local_keys_struct, ptr @freed_ractor_local_keys, i32 0, i32 1), align 4, !tbaa !168
  %20 = load ptr, ptr getelementptr inbounds nuw (%struct.freed_ractor_local_keys_struct, ptr @freed_ractor_local_keys, i32 0, i32 2), align 8, !tbaa !169
  %21 = call nonnull ptr @ruby_xrealloc2(ptr noundef %20, i64 noundef 16, i64 noundef 8) #35
  store ptr %21, ptr getelementptr inbounds nuw (%struct.freed_ractor_local_keys_struct, ptr @freed_ractor_local_keys, i32 0, i32 2), align 8, !tbaa !169
  br label %22

22:                                               ; preds = %19, %16
  ret void
}