; Function Attrs: nounwind sspstrong uwtable
define dso_local void @rb_ractor_finish_marking() local_unnamed_addr #0 {
  %1 = load i32, ptr @freed_ractor_local_keys.0, align 8, !tbaa !181
  %2 = icmp sgt i32 %1, 0
  br i1 %2, label %.lr.ph, label %._crit_edge

._crit_edge:                                      ; preds = %.lr.ph, %0
  store i32 0, ptr @freed_ractor_local_keys.0, align 8, !tbaa !181
  %3 = load i32, ptr @freed_ractor_local_keys.1, align 4, !tbaa !184
  %4 = icmp sgt i32 %3, 16
  br i1 %4, label %11, label %14

.lr.ph:                                           ; preds = %0, %.lr.ph
  %indvars.iv = phi i64 [ %indvars.iv.next, %.lr.ph ], [ 0, %0 ]
  %5 = load ptr, ptr @freed_ractor_local_keys.2, align 8, !tbaa !185
  %6 = getelementptr ptr, ptr %5, i64 %indvars.iv
  %7 = load ptr, ptr %6, align 8, !tbaa !186
  tail call void @ruby_xfree(ptr noundef %7) #19
  %indvars.iv.next = add nuw nsw i64 %indvars.iv, 1
  %8 = load i32, ptr @freed_ractor_local_keys.0, align 8, !tbaa !181
  %9 = sext i32 %8 to i64
  %10 = icmp slt i64 %indvars.iv.next, %9
  br i1 %10, label %.lr.ph, label %._crit_edge, !llvm.loop !190

11:                                               ; preds = %._crit_edge
  store i32 16, ptr @freed_ractor_local_keys.1, align 4, !tbaa !184
  %12 = load ptr, ptr @freed_ractor_local_keys.2, align 8, !tbaa !185
  %13 = tail call nonnull dereferenceable(128) ptr @ruby_xrealloc2(ptr noundef %12, i64 noundef 16, i64 noundef 8) #37
  store ptr %13, ptr @freed_ractor_local_keys.2, align 8, !tbaa !185
  br label %14

14:                                               ; preds = %11, %._crit_edge
  ret void
}